target datalayout = "e-m:e-p270:32:32-p271:32:32-p272:64:64-i64:64-i128:128-f80:128-n8:16:32:64-S128"
target triple = "x86_64-pc-linux-gnu"

%struct._tvbparse_wanted_t = type { i32, ptr, %union.anon, i32, i32, i32, ptr, ptr, ptr }
%union.anon = type { %struct.anon.2 }
%struct.anon.2 = type { ptr, ptr, ptr }
%struct._tvbparse_t = type { ptr, ptr, i32, i32, ptr, ptr, i32 }
%struct._tvbparse_elem_t = type { i32, ptr, ptr, i32, i32, ptr, ptr, ptr, ptr, ptr }

; Function Attrs: null_pointer_is_valid sspstrong uwtable
define internal ptr @new_tok(ptr noundef %0, i32 noundef %1, i32 noundef %2, i32 noundef %3, ptr noundef %4) #0 {
  %6 = alloca ptr, align 8
  %7 = alloca i32, align 4
  %8 = alloca i32, align 4
  %9 = alloca i32, align 4
  %10 = alloca ptr, align 8
  %11 = alloca ptr, align 8
  store ptr %0, ptr %6, align 8
  store i32 %1, ptr %7, align 4
  store i32 %2, ptr %8, align 4
  store i32 %3, ptr %9, align 4
  store ptr %4, ptr %10, align 8
  call void @llvm.lifetime.start.p0(i64 8, ptr %11) #11
  %12 = load ptr, ptr %6, align 8
  %13 = getelementptr inbounds nuw %struct._tvbparse_t, ptr %12, i32 0, i32 0
  %14 = load ptr, ptr %13, align 8
  %15 = call noalias ptr @wmem_alloc(ptr noundef %14, i64 noundef 72) #12
  store ptr %15, ptr %11, align 8
  %16 = load ptr, ptr %6, align 8
  %17 = load ptr, ptr %11, align 8
  %18 = getelementptr inbounds nuw %struct._tvbparse_elem_t, ptr %17, i32 0, i32 1
  store ptr %16, ptr %18, align 8
  %19 = load ptr, ptr %6, align 8
  %20 = getelementptr inbounds nuw %struct._tvbparse_t, ptr %19, i32 0, i32 1
  %21 = load ptr, ptr %20, align 8
  %22 = load ptr, ptr %11, align 8
  %23 = getelementptr inbounds nuw %struct._tvbparse_elem_t, ptr %22, i32 0, i32 2
  store ptr %21, ptr %23, align 8
  %24 = load i32, ptr %7, align 4
  %25 = load ptr, ptr %11, align 8
  %26 = getelementptr inbounds nuw %struct._tvbparse_elem_t, ptr %25, i32 0, i32 0
  store i32 %24, ptr %26, align 8
  %27 = load i32, ptr %8, align 4
  %28 = load ptr, ptr %11, align 8
  %29 = getelementptr inbounds nuw %struct._tvbparse_elem_t, ptr %28, i32 0, i32 3
  store i32 %27, ptr %29, align 8
  %30 = load i32, ptr %9, align 4
  %31 = load ptr, ptr %11, align 8
  %32 = getelementptr inbounds nuw %struct._tvbparse_elem_t, ptr %31, i32 0, i32 4
  store i32 %30, ptr %32, align 4
  %33 = load ptr, ptr %11, align 8
  %34 = getelementptr inbounds nuw %struct._tvbparse_elem_t, ptr %33, i32 0, i32 5
  store ptr null, ptr %34, align 8
  %35 = load ptr, ptr %11, align 8
  %36 = getelementptr inbounds nuw %struct._tvbparse_elem_t, ptr %35, i32 0, i32 6
  store ptr null, ptr %36, align 8
  %37 = load ptr, ptr %11, align 8
  %38 = getelementptr inbounds nuw %struct._tvbparse_elem_t, ptr %37, i32 0, i32 7
  store ptr null, ptr %38, align 8
  %39 = load ptr, ptr %10, align 8
  %40 = load ptr, ptr %11, align 8
  %41 = getelementptr inbounds nuw %struct._tvbparse_elem_t, ptr %40, i32 0, i32 9
  store ptr %39, ptr %41, align 8
  %42 = load ptr, ptr %11, align 8
  %43 = load ptr, ptr %11, align 8
  %44 = getelementptr inbounds nuw %struct._tvbparse_elem_t, ptr %43, i32 0, i32 8
  store ptr %42, ptr %44, align 8
  %45 = load ptr, ptr %11, align 8
  call void @llvm.lifetime.end.p0(i64 8, ptr %11) #11
  ret ptr %45
}

; Function Attrs: null_pointer_is_valid sspstrong uwtable
define internal i32 @cond_not_char(ptr noundef %0, i32 noundef %1, ptr noundef %2, ptr noundef %3) #0 {
  %5 = alloca i32, align 4
  %6 = alloca ptr, align 8
  %7 = alloca i32, align 4
  %8 = alloca ptr, align 8
  %9 = alloca ptr, align 8
  %10 = alloca i8, align 1
  %11 = alloca i8, align 1
  %12 = alloca i32, align 4
  %13 = alloca i8, align 1
  %14 = alloca i32, align 4
  store ptr %0, ptr %6, align 8
  store i32 %1, ptr %7, align 4
  store ptr %2, ptr %8, align 8
  store ptr %3, ptr %9, align 8
  call void @llvm.lifetime.start.p0(i64 1, ptr %10) #11
  call void @llvm.lifetime.start.p0(i64 1, ptr %11) #11
  call void @llvm.lifetime.start.p0(i64 4, ptr %12) #11
  call void @llvm.lifetime.start.p0(i64 1, ptr %13) #11
  store i8 0, ptr %13, align 1
  %15 = load i32, ptr %7, align 4
  %16 = load ptr, ptr %6, align 8
  %17 = getelementptr inbounds nuw %struct._tvbparse_t, ptr %16, i32 0, i32 3
  %18 = load i32, ptr %17, align 4
  %19 = icmp sge i32 %15, %18
  br i1 %19, label %20, label %21

20:                                               ; preds = %4
  store i32 -1, ptr %5, align 4
  store i32 1, ptr %14, align 4
  br label %60

21:                                               ; preds = %4
  %22 = load ptr, ptr %6, align 8
  %23 = getelementptr inbounds nuw %struct._tvbparse_t, ptr %22, i32 0, i32 1
  %24 = load ptr, ptr %23, align 8
  %25 = load i32, ptr %7, align 4
  %26 = call zeroext i8 @tvb_get_uint8(ptr noundef %24, i32 noundef %25)
  store i8 %26, ptr %11, align 1
  store i32 0, ptr %12, align 4
  br label %27

27:                                               ; preds = %44, %21
  %28 = load ptr, ptr %8, align 8
  %29 = getelementptr inbounds nuw %struct._tvbparse_wanted_t, ptr %28, i32 0, i32 2
  %30 = load ptr, ptr %29, align 8
  %31 = load i32, ptr %12, align 4
  %32 = zext i32 %31 to i64
  %33 = getelementptr i8, ptr %30, i64 %32
  %34 = load i8, ptr %33, align 1
  store i8 %34, ptr %10, align 1
  %35 = icmp ne i8 %34, 0
  br i1 %35, label %36, label %47

36:                                               ; preds = %27
  %37 = load i8, ptr %10, align 1
  %38 = sext i8 %37 to i32
  %39 = load i8, ptr %11, align 1
  %40 = sext i8 %39 to i32
  %41 = icmp eq i32 %38, %40
  br i1 %41, label %42, label %43

42:                                               ; preds = %36
  store i8 1, ptr %13, align 1
  br label %43

43:                                               ; preds = %42, %36
  br label %44

44:                                               ; preds = %43
  %45 = load i32, ptr %12, align 4
  %46 = add i32 %45, 1
  store i32 %46, ptr %12, align 4
  br label %27, !llvm.loop !10

47:                                               ; preds = %27
  %48 = load i8, ptr %13, align 1, !range !11, !noundef !12
  %49 = trunc i8 %48 to i1
  br i1 %49, label %50, label %51

50:                                               ; preds = %47
  store i32 -1, ptr %5, align 4
  store i32 1, ptr %14, align 4
  br label %60

51:                                               ; preds = %47
  %52 = load ptr, ptr %6, align 8
  %53 = load ptr, ptr %8, align 8
  %54 = getelementptr inbounds nuw %struct._tvbparse_wanted_t, ptr %53, i32 0, i32 0
  %55 = load i32, ptr %54, align 8
  %56 = load i32, ptr %7, align 4
  %57 = load ptr, ptr %8, align 8
  %58 = call ptr @new_tok(ptr noundef %52, i32 noundef %55, i32 noundef %56, i32 noundef 1, ptr noundef %57)
  %59 = load ptr, ptr %9, align 8
  store ptr %58, ptr %59, align 8
  store i32 1, ptr %5, align 4
  store i32 1, ptr %14, align 4
  br label %60

60:                                               ; preds = %51, %50, %20
  call void @llvm.lifetime.end.p0(i64 1, ptr %13) #11
  call void @llvm.lifetime.end.p0(i64 4, ptr %12) #11
  call void @llvm.lifetime.end.p0(i64 1, ptr %11) #11
  call void @llvm.lifetime.end.p0(i64 1, ptr %10) #11
  %61 = load i32, ptr %5, align 4
  ret i32 %61
}