; Function Attrs: null_pointer_is_valid sspstrong uwtable
define internal range(i32 -1, 2) i32 @cond_not_char(ptr noundef %0, i32 noundef %1, ptr noundef %2, ptr noundef writeonly captures(none) %3) #0 {
  %5 = getelementptr inbounds nuw i8, ptr %0, i64 20
  %6 = load i32, ptr %5, align 4
  %.not = icmp slt i32 %1, %6
  br i1 %.not, label %7, label %31

7:                                                ; preds = %4
  %8 = getelementptr inbounds nuw i8, ptr %0, i64 8
  %9 = load ptr, ptr %8, align 8
  %10 = tail call zeroext i8 @tvb_get_uint8(ptr noundef %9, i32 noundef %1)
  %11 = getelementptr inbounds nuw i8, ptr %2, i64 16
  %12 = load ptr, ptr %11, align 8
  %13 = load i8, ptr %12, align 1
  %.not1920 = icmp eq i8 %13, 0
  br i1 %.not1920, label %.critedge, label %.lr.ph

.lr.ph:                                           ; preds = %7, %.lr.ph
  %14 = phi i8 [ %19, %.lr.ph ], [ %13, %7 ]
  %.022 = phi i1 [ %spec.select, %.lr.ph ], [ false, %7 ]
  %.01521 = phi i32 [ %16, %.lr.ph ], [ 0, %7 ]
  %15 = icmp eq i8 %14, %10
  %spec.select = select i1 %15, i1 true, i1 %.022
  %16 = add i32 %.01521, 1
  %17 = zext i32 %16 to i64
  %18 = getelementptr i8, ptr %12, i64 %17
  %19 = load i8, ptr %18, align 1
  %.not19 = icmp eq i8 %19, 0
  br i1 %.not19, label %._crit_edge, label %.lr.ph, !llvm.loop !9

._crit_edge:                                      ; preds = %.lr.ph
  br i1 %spec.select, label %31, label %.critedge

.critedge:                                        ; preds = %7, %._crit_edge
  %20 = load i32, ptr %2, align 8
  %21 = load ptr, ptr %0, align 8
  %22 = tail call noalias dereferenceable_or_null(72) ptr @wmem_alloc(ptr noundef %21, i64 noundef 72) #11
  %23 = getelementptr inbounds nuw i8, ptr %22, i64 8
  store ptr %0, ptr %23, align 8
  %24 = load ptr, ptr %8, align 8
  %25 = getelementptr inbounds nuw i8, ptr %22, i64 16
  store ptr %24, ptr %25, align 8
  store i32 %20, ptr %22, align 8
  %26 = getelementptr inbounds nuw i8, ptr %22, i64 24
  store i32 %1, ptr %26, align 8
  %27 = getelementptr inbounds nuw i8, ptr %22, i64 28
  store i32 1, ptr %27, align 4
  %28 = getelementptr inbounds nuw i8, ptr %22, i64 32
  %29 = getelementptr inbounds nuw i8, ptr %22, i64 64
  tail call void @llvm.memset.p0.i64(ptr noundef nonnull align 8 dereferenceable(24) %28, i8 0, i64 24, i1 false)
  store ptr %2, ptr %29, align 8
  %30 = getelementptr inbounds nuw i8, ptr %22, i64 56
  store ptr %22, ptr %30, align 8
  store ptr %22, ptr %3, align 8
  br label %31

31:                                               ; preds = %._crit_edge, %4, %.critedge
  %.016 = phi i32 [ 1, %.critedge ], [ -1, %4 ], [ -1, %._crit_edge ]
  ret i32 %.016
}